; Function Attrs: mustprogress nofree norecurse nosync nounwind willreturn memory(write, argmem: readwrite, inaccessiblemem: none) uwtable
define range(i32 -2, 1) i32 @inflateReset(ptr noundef %0) local_unnamed_addr #0 {
  %2 = icmp eq ptr %0, null
  br i1 %2, label %27, label %3

3:                                                ; preds = %1
  %4 = getelementptr inbounds nuw i8, ptr %0, i64 56
  %5 = load ptr, ptr %4, align 8, !tbaa !3
  %6 = icmp eq ptr %5, null
  br i1 %6, label %27, label %7

7:                                                ; preds = %3
  %8 = getelementptr inbounds nuw i8, ptr %5, i64 32
  store i64 0, ptr %8, align 8, !tbaa !12
  %9 = getelementptr inbounds nuw i8, ptr %0, i64 40
  %10 = getelementptr inbounds nuw i8, ptr %0, i64 16
  store i64 0, ptr %10, align 8, !tbaa !15
  %11 = getelementptr inbounds nuw i8, ptr %0, i64 96
  tail call void @llvm.memset.p0.i64(ptr noundef nonnull align 8 dereferenceable(16) %9, i8 0, i64 16, i1 false)
  store i64 1, ptr %11, align 8, !tbaa !16
  store i32 0, ptr %5, align 8, !tbaa !17
  %12 = getelementptr inbounds nuw i8, ptr %5, i64 4
  store i32 0, ptr %12, align 4, !tbaa !18
  %13 = getelementptr inbounds nuw i8, ptr %5, i64 12
  store i32 0, ptr %13, align 4, !tbaa !19
  %14 = getelementptr inbounds nuw i8, ptr %5, i64 20
  store i32 32768, ptr %14, align 4, !tbaa !20
  %15 = getelementptr inbounds nuw i8, ptr %5, i64 40
  store ptr null, ptr %15, align 8, !tbaa !21
  %16 = getelementptr inbounds nuw i8, ptr %5, i64 52
  store i32 0, ptr %16, align 4, !tbaa !22
  %17 = getelementptr inbounds nuw i8, ptr %5, i64 56
  store i32 0, ptr %17, align 8, !tbaa !23
  %18 = getelementptr inbounds nuw i8, ptr %5, i64 60
  store i32 0, ptr %18, align 4, !tbaa !24
  %19 = getelementptr inbounds nuw i8, ptr %5, i64 72
  store i64 0, ptr %19, align 8, !tbaa !25
  %20 = getelementptr inbounds nuw i8, ptr %5, i64 80
  store i32 0, ptr %20, align 8, !tbaa !26
  %21 = getelementptr inbounds nuw i8, ptr %5, i64 1360
  %22 = getelementptr inbounds nuw i8, ptr %5, i64 136
  store ptr %21, ptr %22, align 8, !tbaa !27
  %23 = getelementptr inbounds nuw i8, ptr %5, i64 104
  store ptr %21, ptr %23, align 8, !tbaa !28
  %24 = getelementptr inbounds nuw i8, ptr %5, i64 96
  store ptr %21, ptr %24, align 8, !tbaa !29
  %25 = getelementptr inbounds nuw i8, ptr %5, i64 7136
  store i32 1, ptr %25, align 8, !tbaa !30
  %26 = getelementptr inbounds nuw i8, ptr %5, i64 7140
  store i32 -1, ptr %26, align 4, !tbaa !31
  br label %27

27:                                               ; preds = %1, %3, %7
  %.0 = phi i32 [ 0, %7 ], [ -2, %3 ], [ -2, %1 ]
  ret i32 %.0
}